; Function Attrs: mustprogress uwtable
define hidden void @_ZN4cvc58internal6theory11quantifiers25SynthConjectureProcessFun17getIrrelevantArgsERSt13unordered_setIjSt4hashIjESt8equal_toIjESaIjEE(ptr noundef nonnull readonly align 8 captures(none) dereferenceable(128) %0, ptr noundef nonnull align 8 dereferenceable(56) %1) local_unnamed_addr #3 align 2 {
  %3 = alloca %"struct.std::__detail::_AllocNode.685", align 8
  %4 = alloca i32, align 4
  call void @llvm.lifetime.start.p0(i64 4, ptr nonnull %4) #23
  %5 = getelementptr inbounds nuw i8, ptr %0, i64 48
  %6 = getelementptr inbounds nuw i8, ptr %0, i64 56
  store i32 0, ptr %4, align 4, !tbaa !63
  %7 = load ptr, ptr %6, align 8, !tbaa !59
  %8 = load ptr, ptr %5, align 8, !tbaa !89
  %.not = icmp eq ptr %7, %8
  br i1 %.not, label %._crit_edge, label %.lr.ph

.lr.ph:                                           ; preds = %2
  %9 = getelementptr inbounds nuw i8, ptr %0, i64 24
  br label %10

._crit_edge:                                      ; preds = %21, %2
  call void @llvm.lifetime.end.p0(i64 4, ptr nonnull %4) #23
  ret void

10:                                               ; preds = %.lr.ph, %21
  %11 = phi ptr [ %8, %.lr.ph ], [ %22, %21 ]
  %12 = phi ptr [ %7, %.lr.ph ], [ %23, %21 ]
  %13 = phi i32 [ 0, %.lr.ph ], [ %25, %21 ]
  %14 = phi i64 [ 0, %.lr.ph ], [ %26, %21 ]
  %15 = load ptr, ptr %9, align 8, !tbaa !158
  %16 = getelementptr inbounds nuw %"class.cvc5::internal::theory::quantifiers::SynthConjectureProcessArg", ptr %15, i64 %14, i32 2
  %17 = load i8, ptr %16, align 1, !tbaa !68, !range !214, !noundef !187
  %18 = trunc nuw i8 %17 to i1
  br i1 %18, label %21, label %19

19:                                               ; preds = %10
  call void @llvm.lifetime.start.p0(i64 8, ptr nonnull %3) #23
  store ptr %1, ptr %3, align 8, !tbaa !271
  %20 = call { ptr, i8 } @_ZNSt10_HashtableIjjSaIjENSt8__detail9_IdentityESt8equal_toIjESt4hashIjENS1_18_Mod_range_hashingENS1_20_Default_ranged_hashENS1_20_Prime_rehash_policyENS1_17_Hashtable_traitsILb0ELb1ELb1EEEE16_M_insert_uniqueIRKjSF_NS1_10_AllocNodeISaINS1_10_Hash_nodeIjLb0EEEEEEEESt4pairINS1_14_Node_iteratorIjLb1ELb0EEEbEOT_OT0_RKT1_(ptr noundef nonnull align 8 dereferenceable(56) %1, ptr noundef nonnull align 4 dereferenceable(4) %4, ptr noundef nonnull align 4 dereferenceable(4) %4, ptr noundef nonnull align 8 dereferenceable(8) %3)
  call void @llvm.lifetime.end.p0(i64 8, ptr nonnull %3) #23
  %.pre = load i32, ptr %4, align 4, !tbaa !63
  %.pre2 = load ptr, ptr %6, align 8, !tbaa !59
  %.pre3 = load ptr, ptr %5, align 8, !tbaa !89
  br label %21

21:                                               ; preds = %10, %19
  %22 = phi ptr [ %11, %10 ], [ %.pre3, %19 ]
  %23 = phi ptr [ %12, %10 ], [ %.pre2, %19 ]
  %24 = phi i32 [ %13, %10 ], [ %.pre, %19 ]
  %25 = add i32 %24, 1
  store i32 %25, ptr %4, align 4, !tbaa !63
  %26 = zext i32 %25 to i64
  %27 = ptrtoint ptr %23 to i64
  %28 = ptrtoint ptr %22 to i64
  %29 = sub i64 %27, %28
  %30 = ashr exact i64 %29, 3
  %31 = icmp ugt i64 %30, %26
  br i1 %31, label %10, label %._crit_edge, !llvm.loop !273
}